target datalayout = "e-m:e-p270:32:32-p271:32:32-p272:64:64-i64:64-i128:128-f80:128-n8:16:32:64-S128"
target triple = "x86_64-pc-linux-gnu"

%struct.lxb_html_tree = type { ptr, ptr, ptr, ptr, ptr, ptr, ptr, %struct.lxb_html_tree_pending_table_t, ptr, i8, i8, i8, i8, i8, i8, ptr, ptr, ptr, i32, i64 }
%struct.lxb_html_tree_pending_table_t = type { ptr, i8 }
%struct.lxb_html_tokenizer = type { ptr, ptr, ptr, ptr, ptr, ptr, ptr, ptr, ptr, ptr, ptr, ptr, ptr, ptr, ptr, i64, ptr, ptr, ptr, ptr, ptr, i64, i64, ptr, ptr, i64, i64, i32, i32, i8, i32, i32, i8, ptr, i64 }

; Function Attrs: inlinehint nounwind uwtable
define internal void @lxb_html_tokenizer_state_set(ptr noundef %0, ptr noundef %1) #3 {
  %3 = alloca ptr, align 8
  %4 = alloca ptr, align 8
  store ptr %0, ptr %3, align 8, !tbaa !88
  store ptr %1, ptr %4, align 8, !tbaa !9
  %5 = load ptr, ptr %4, align 8, !tbaa !9
  %6 = load ptr, ptr %3, align 8, !tbaa !88
  %7 = getelementptr inbounds nuw %struct.lxb_html_tokenizer, ptr %6, i32 0, i32 0
  store ptr %5, ptr %7, align 8, !tbaa !89
  ret void
}

; Function Attrs: inlinehint nounwind uwtable
define internal ptr @lxb_html_tree_insert_html_element(ptr noundef %0, ptr noundef %1) #3 {
  %3 = alloca ptr, align 8
  %4 = alloca ptr, align 8
  store ptr %0, ptr %3, align 8, !tbaa !4
  store ptr %1, ptr %4, align 8, !tbaa !9
  %5 = load ptr, ptr %3, align 8, !tbaa !4
  %6 = load ptr, ptr %4, align 8, !tbaa !9
  %7 = call ptr @lxb_html_tree_insert_foreign_element(ptr noundef %5, ptr noundef %6, i64 noundef 2)
  ret ptr %7
}

; Function Attrs: inlinehint nounwind uwtable
define internal zeroext i1 @lxb_html_tree_insertion_mode_in_body_plaintext(ptr noundef %0, ptr noundef %1) #3 {
  %3 = alloca i1, align 1
  %4 = alloca ptr, align 8
  %5 = alloca ptr, align 8
  %6 = alloca ptr, align 8
  %7 = alloca ptr, align 8
  %8 = alloca i32, align 4
  store ptr %0, ptr %4, align 8, !tbaa !4
  store ptr %1, ptr %5, align 8, !tbaa !9
  call void @llvm.lifetime.start.p0(i64 8, ptr %6) #5
  call void @llvm.lifetime.start.p0(i64 8, ptr %7) #5
  %9 = load ptr, ptr %4, align 8, !tbaa !4
  %10 = call ptr @lxb_html_tree_element_in_scope(ptr noundef %9, i64 noundef 145, i64 noundef 2, i32 noundef 32)
  store ptr %10, ptr %6, align 8, !tbaa !37
  %11 = load ptr, ptr %6, align 8, !tbaa !37
  %12 = icmp ne ptr %11, null
  br i1 %12, label %13, label %16

13:                                               ; preds = %2
  %14 = load ptr, ptr %4, align 8, !tbaa !4
  %15 = load ptr, ptr %5, align 8, !tbaa !9
  call void @lxb_html_tree_close_p_element(ptr noundef %14, ptr noundef %15)
  br label %16

16:                                               ; preds = %13, %2
  %17 = load ptr, ptr %4, align 8, !tbaa !4
  %18 = load ptr, ptr %5, align 8, !tbaa !9
  %19 = call ptr @lxb_html_tree_insert_html_element(ptr noundef %17, ptr noundef %18)
  store ptr %19, ptr %7, align 8, !tbaa !40
  %20 = load ptr, ptr %7, align 8, !tbaa !40
  %21 = icmp eq ptr %20, null
  br i1 %21, label %22, label %27

22:                                               ; preds = %16
  %23 = load ptr, ptr %4, align 8, !tbaa !4
  %24 = getelementptr inbounds nuw %struct.lxb_html_tree, ptr %23, i32 0, i32 18
  store i32 2, ptr %24, align 8, !tbaa !25
  %25 = load ptr, ptr %4, align 8, !tbaa !4
  %26 = call zeroext i1 @lxb_html_tree_process_abort(ptr noundef %25)
  store i1 %26, ptr %3, align 1
  store i32 1, ptr %8, align 4
  br label %31

27:                                               ; preds = %16
  %28 = load ptr, ptr %4, align 8, !tbaa !4
  %29 = getelementptr inbounds nuw %struct.lxb_html_tree, ptr %28, i32 0, i32 0
  %30 = load ptr, ptr %29, align 8, !tbaa !78
  call void @lxb_html_tokenizer_state_set(ptr noundef %30, ptr noundef @lxb_html_tokenizer_state_plaintext_before)
  store i1 true, ptr %3, align 1
  store i32 1, ptr %8, align 4
  br label %31

31:                                               ; preds = %27, %22
  call void @llvm.lifetime.end.p0(i64 8, ptr %7) #5
  call void @llvm.lifetime.end.p0(i64 8, ptr %6) #5
  %32 = load i1, ptr %3, align 1
  ret i1 %32
}