; Function Attrs: inlinehint nounwind uwtable
define internal fastcc zeroext i1 @lxb_html_tree_insertion_mode_in_body_plaintext(ptr noundef %0, ptr noundef %1) unnamed_addr #3 {
  %3 = tail call ptr @lxb_html_tree_element_in_scope(ptr noundef %0, i64 noundef 145, i64 noundef 2, i32 noundef 32) #6
  %.not = icmp eq ptr %3, null
  br i1 %.not, label %5, label %4

4:                                                ; preds = %2
  tail call void @lxb_html_tree_close_p_element(ptr noundef %0, ptr noundef %1) #6
  br label %5

5:                                                ; preds = %4, %2
  %6 = tail call ptr @lxb_html_tree_insert_foreign_element(ptr noundef %0, ptr noundef %1, i64 noundef 2) #6
  %7 = icmp eq ptr %6, null
  br i1 %7, label %8, label %11

8:                                                ; preds = %5
  %9 = getelementptr inbounds nuw i8, ptr %0, i64 112
  store i32 2, ptr %9, align 8, !tbaa !22
  %10 = tail call zeroext i1 @lxb_html_tree_process_abort(ptr noundef %0) #6
  br label %13

11:                                               ; preds = %5
  %12 = load ptr, ptr %0, align 8, !tbaa !67
  store ptr @lxb_html_tokenizer_state_plaintext_before, ptr %12, align 8, !tbaa !68
  br label %13

13:                                               ; preds = %11, %8
  %.0 = phi i1 [ %10, %8 ], [ true, %11 ]
  ret i1 %.0
}